target datalayout = "e-m:e-p270:32:32-p271:32:32-p272:64:64-i64:64-i128:128-f80:128-n8:16:32:64-S128"
target triple = "x86_64-pc-linux-gnu"

%struct.UCMStates = type { [128 x [256 x i32]], [128 x i32], [128 x i32], i32, i32, i32, i32, i8, i8 }
%struct._MBCSToUFallback = type { i32, i32 }

@.str.60 = private unnamed_addr constant [74 x i8] c"    all-unassigned sequences from prefix 0x%02lx state %ld use %ld bytes\0A\00", align 1

; Function Attrs: mustprogress nounwind uwtable
define i32 @ucm_findFallback(ptr noundef %0, i32 noundef %1, i32 noundef %2) #6 {
  %4 = alloca i32, align 4
  %5 = alloca ptr, align 8
  %6 = alloca i32, align 4
  %7 = alloca i32, align 4
  %8 = alloca i32, align 4
  %9 = alloca i32, align 4
  store ptr %0, ptr %5, align 8, !tbaa !47
  store i32 %1, ptr %6, align 4, !tbaa !17
  store i32 %2, ptr %7, align 4, !tbaa !17
  call void @llvm.lifetime.start.p0(i64 4, ptr %8) #10
  %10 = load i32, ptr %6, align 4, !tbaa !17
  %11 = icmp eq i32 %10, 0
  br i1 %11, label %12, label %13

12:                                               ; preds = %3
  store i32 -1, ptr %4, align 4
  store i32 1, ptr %9, align 4
  br label %34

13:                                               ; preds = %3
  store i32 0, ptr %8, align 4, !tbaa !17
  br label %14

14:                                               ; preds = %30, %13
  %15 = load i32, ptr %8, align 4, !tbaa !17
  %16 = load i32, ptr %6, align 4, !tbaa !17
  %17 = icmp slt i32 %15, %16
  br i1 %17, label %18, label %33

18:                                               ; preds = %14
  %19 = load i32, ptr %7, align 4, !tbaa !17
  %20 = load ptr, ptr %5, align 8, !tbaa !47
  %21 = load i32, ptr %8, align 4, !tbaa !17
  %22 = sext i32 %21 to i64
  %23 = getelementptr inbounds %struct._MBCSToUFallback, ptr %20, i64 %22
  %24 = getelementptr inbounds nuw %struct._MBCSToUFallback, ptr %23, i32 0, i32 0
  %25 = load i32, ptr %24, align 4, !tbaa !48
  %26 = icmp eq i32 %19, %25
  br i1 %26, label %27, label %29

27:                                               ; preds = %18
  %28 = load i32, ptr %8, align 4, !tbaa !17
  store i32 %28, ptr %4, align 4
  store i32 1, ptr %9, align 4
  br label %34

29:                                               ; preds = %18
  br label %30

30:                                               ; preds = %29
  %31 = load i32, ptr %8, align 4, !tbaa !17
  %32 = add nsw i32 %31, 1
  store i32 %32, ptr %8, align 4, !tbaa !17
  br label %14, !llvm.loop !50

33:                                               ; preds = %14
  store i32 -1, ptr %4, align 4
  store i32 1, ptr %9, align 4
  br label %34

34:                                               ; preds = %33, %27, %12
  call void @llvm.lifetime.end.p0(i64 4, ptr %8) #10
  %35 = load i32, ptr %4, align 4
  ret i32 %35
}

; Function Attrs: mustprogress uwtable
define internal noundef i32 @_ZL14findUnassignedP9UCMStatesPtP16_MBCSToUFallbackiiij(ptr noundef %0, ptr noundef %1, ptr noundef %2, i32 noundef %3, i32 noundef %4, i32 noundef %5, i32 noundef %6) #0 {
  %8 = alloca i32, align 4
  %9 = alloca ptr, align 8
  %10 = alloca ptr, align 8
  %11 = alloca ptr, align 8
  %12 = alloca i32, align 4
  %13 = alloca i32, align 4
  %14 = alloca i32, align 4
  %15 = alloca i32, align 4
  %16 = alloca i32, align 4
  %17 = alloca i32, align 4
  %18 = alloca i32, align 4
  %19 = alloca i32, align 4
  %20 = alloca i32, align 4
  %21 = alloca i8, align 1
  %22 = alloca i32, align 4
  store ptr %0, ptr %9, align 8, !tbaa !3
  store ptr %1, ptr %10, align 8, !tbaa !55
  store ptr %2, ptr %11, align 8, !tbaa !47
  store i32 %3, ptr %12, align 4, !tbaa !17
  store i32 %4, ptr %13, align 4, !tbaa !17
  store i32 %5, ptr %14, align 4, !tbaa !17
  store i32 %6, ptr %15, align 4, !tbaa !17
  call void @llvm.lifetime.start.p0(i64 4, ptr %16) #10
  call void @llvm.lifetime.start.p0(i64 4, ptr %17) #10
  call void @llvm.lifetime.start.p0(i64 4, ptr %18) #10
  call void @llvm.lifetime.start.p0(i64 4, ptr %19) #10
  call void @llvm.lifetime.start.p0(i64 4, ptr %20) #10
  call void @llvm.lifetime.start.p0(i64 1, ptr %21) #10
  store i32 0, ptr %20, align 4, !tbaa !17
  store i32 0, ptr %19, align 4, !tbaa !17
  store i8 0, ptr %21, align 1, !tbaa !20
  store i32 0, ptr %16, align 4, !tbaa !17
  br label %23

23:                                               ; preds = %129, %7
  %24 = load i32, ptr %16, align 4, !tbaa !17
  %25 = icmp slt i32 %24, 256
  br i1 %25, label %26, label %132

26:                                               ; preds = %23
  %27 = load ptr, ptr %9, align 8, !tbaa !3
  %28 = getelementptr inbounds nuw %struct.UCMStates, ptr %27, i32 0, i32 0
  %29 = load i32, ptr %13, align 4, !tbaa !17
  %30 = sext i32 %29 to i64
  %31 = getelementptr inbounds [128 x [256 x i32]], ptr %28, i64 0, i64 %30
  %32 = load i32, ptr %16, align 4, !tbaa !17
  %33 = sext i32 %32 to i64
  %34 = getelementptr inbounds [256 x i32], ptr %31, i64 0, i64 %33
  %35 = load i32, ptr %34, align 4, !tbaa !17
  store i32 %35, ptr %17, align 4, !tbaa !17
  %36 = load i32, ptr %17, align 4, !tbaa !17
  %37 = icmp sge i32 %36, 0
  br i1 %37, label %38, label %76

38:                                               ; preds = %26
  %39 = load ptr, ptr %9, align 8, !tbaa !3
  %40 = load ptr, ptr %10, align 8, !tbaa !55
  %41 = load ptr, ptr %11, align 8, !tbaa !47
  %42 = load i32, ptr %12, align 4, !tbaa !17
  %43 = load i32, ptr %17, align 4, !tbaa !17
  %44 = lshr i32 %43, 24
  %45 = load i32, ptr %14, align 4, !tbaa !17
  %46 = load i32, ptr %17, align 4, !tbaa !17
  %47 = and i32 %46, 16777215
  %48 = add nsw i32 %45, %47
  %49 = load i32, ptr %15, align 4, !tbaa !17
  %50 = shl i32 %49, 8
  %51 = load i32, ptr %16, align 4, !tbaa !17
  %52 = or i32 %50, %51
  %53 = call noundef i32 @_ZL14findUnassignedP9UCMStatesPtP16_MBCSToUFallbackiiij(ptr noundef %39, ptr noundef %40, ptr noundef %41, i32 noundef %42, i32 noundef %44, i32 noundef %48, i32 noundef %52)
  store i32 %53, ptr %18, align 4, !tbaa !17
  %54 = load i32, ptr %18, align 4, !tbaa !17
  %55 = icmp slt i32 %54, 0
  br i1 %55, label %56, label %57

56:                                               ; preds = %38
  store i8 1, ptr %21, align 1, !tbaa !20
  br label %75

57:                                               ; preds = %38
  %58 = load i32, ptr %18, align 4, !tbaa !17
  %59 = icmp sgt i32 %58, 0
  br i1 %59, label %60, label %74

60:                                               ; preds = %57
  %61 = load i32, ptr %15, align 4, !tbaa !17
  %62 = shl i32 %61, 8
  %63 = load i32, ptr %16, align 4, !tbaa !17
  %64 = or i32 %62, %63
  %65 = zext i32 %64 to i64
  %66 = load i32, ptr %13, align 4, !tbaa !17
  %67 = sext i32 %66 to i64
  %68 = load i32, ptr %18, align 4, !tbaa !17
  %69 = sext i32 %68 to i64
  %70 = call i32 (ptr, ...) @printf(ptr noundef @.str.60, i64 noundef %65, i64 noundef %67, i64 noundef %69)
  %71 = load i32, ptr %18, align 4, !tbaa !17
  %72 = load i32, ptr %20, align 4, !tbaa !17
  %73 = add nsw i32 %72, %71
  store i32 %73, ptr %20, align 4, !tbaa !17
  br label %74

74:                                               ; preds = %60, %57
  br label %75

75:                                               ; preds = %74, %56
  br label %128

76:                                               ; preds = %26
  %77 = load i8, ptr %21, align 1, !tbaa !20
  %78 = icmp ne i8 %77, 0
  br i1 %78, label %127, label %79

79:                                               ; preds = %76
  %80 = load i32, ptr %17, align 4, !tbaa !17
  %81 = lshr i32 %80, 20
  %82 = and i32 %81, 15
  switch i32 %82, label %125 [
    i32 4, label %83
    i32 5, label %107
  ]

83:                                               ; preds = %79
  %84 = load i32, ptr %14, align 4, !tbaa !17
  %85 = load i32, ptr %17, align 4, !tbaa !17
  %86 = trunc i32 %85 to i16
  %87 = zext i16 %86 to i32
  %88 = add nsw i32 %84, %87
  store i32 %88, ptr %17, align 4, !tbaa !17
  %89 = load ptr, ptr %10, align 8, !tbaa !55
  %90 = load i32, ptr %17, align 4, !tbaa !17
  %91 = sext i32 %90 to i64
  %92 = getelementptr inbounds i16, ptr %89, i64 %91
  %93 = load i16, ptr %92, align 2, !tbaa !59
  %94 = zext i16 %93 to i32
  %95 = icmp eq i32 %94, 65534
  br i1 %95, label %96, label %105

96:                                               ; preds = %83
  %97 = load ptr, ptr %11, align 8, !tbaa !47
  %98 = load i32, ptr %12, align 4, !tbaa !17
  %99 = load i32, ptr %17, align 4, !tbaa !17
  %100 = call i32 @ucm_findFallback(ptr noundef %97, i32 noundef %98, i32 noundef %99)
  %101 = icmp slt i32 %100, 0
  br i1 %101, label %102, label %105

102:                                              ; preds = %96
  %103 = load i32, ptr %19, align 4, !tbaa !17
  %104 = add nsw i32 %103, 2
  store i32 %104, ptr %19, align 4, !tbaa !17
  br label %106

105:                                              ; preds = %96, %83
  store i8 1, ptr %21, align 1, !tbaa !20
  br label %106

106:                                              ; preds = %105, %102
  br label %126

107:                                              ; preds = %79
  %108 = load i32, ptr %14, align 4, !tbaa !17
  %109 = load i32, ptr %17, align 4, !tbaa !17
  %110 = trunc i32 %109 to i16
  %111 = zext i16 %110 to i32
  %112 = add nsw i32 %108, %111
  store i32 %112, ptr %17, align 4, !tbaa !17
  %113 = load ptr, ptr %10, align 8, !tbaa !55
  %114 = load i32, ptr %17, align 4, !tbaa !17
  %115 = sext i32 %114 to i64
  %116 = getelementptr inbounds i16, ptr %113, i64 %115
  %117 = load i16, ptr %116, align 2, !tbaa !59
  %118 = zext i16 %117 to i32
  %119 = icmp eq i32 %118, 65534
  br i1 %119, label %120, label %123

120:                                              ; preds = %107
  %121 = load i32, ptr %19, align 4, !tbaa !17
  %122 = add nsw i32 %121, 4
  store i32 %122, ptr %19, align 4, !tbaa !17
  br label %124

123:                                              ; preds = %107
  store i8 1, ptr %21, align 1, !tbaa !20
  br label %124

124:                                              ; preds = %123, %120
  br label %126

125:                                              ; preds = %79
  br label %126

126:                                              ; preds = %125, %124, %106
  br label %127

127:                                              ; preds = %126, %76
  br label %128

128:                                              ; preds = %127, %75
  br label %129

129:                                              ; preds = %128
  %130 = load i32, ptr %16, align 4, !tbaa !17
  %131 = add nsw i32 %130, 1
  store i32 %131, ptr %16, align 4, !tbaa !17
  br label %23, !llvm.loop !75

132:                                              ; preds = %23
  %133 = load i8, ptr %21, align 1, !tbaa !20
  %134 = icmp ne i8 %133, 0
  br i1 %134, label %135, label %136

135:                                              ; preds = %132
  store i32 -1, ptr %8, align 4
  store i32 1, ptr %22, align 4
  br label %140

136:                                              ; preds = %132
  %137 = load i32, ptr %19, align 4, !tbaa !17
  %138 = load i32, ptr %20, align 4, !tbaa !17
  %139 = add nsw i32 %137, %138
  store i32 %139, ptr %8, align 4
  store i32 1, ptr %22, align 4
  br label %140

140:                                              ; preds = %136, %135
  call void @llvm.lifetime.end.p0(i64 1, ptr %21) #10
  call void @llvm.lifetime.end.p0(i64 4, ptr %20) #10
  call void @llvm.lifetime.end.p0(i64 4, ptr %19) #10
  call void @llvm.lifetime.end.p0(i64 4, ptr %18) #10
  call void @llvm.lifetime.end.p0(i64 4, ptr %17) #10
  call void @llvm.lifetime.end.p0(i64 4, ptr %16) #10
  %141 = load i32, ptr %8, align 4
  ret i32 %141
}