; Function Attrs: mustprogress nofree nounwind uwtable
define internal fastcc noundef i32 @_ZL14findUnassignedP9UCMStatesPtP16_MBCSToUFallbackiiij(ptr noundef readonly captures(none) %0, ptr noundef readonly captures(none) %1, ptr noundef readonly captures(none) %2, i32 noundef %3, i32 noundef %4, i32 noundef %5, i32 noundef %6) unnamed_addr #7 {
  %8 = sext i32 %4 to i64
  %9 = icmp sgt i32 %3, 0
  %wide.trip.count.i = zext nneg i32 %3 to i64
  %10 = shl i32 %6, 8
  %11 = zext i32 %10 to i64
  br label %12

12:                                               ; preds = %7, %ucm_findFallback.exit
  %indvars.iv = phi i64 [ 0, %7 ], [ %indvars.iv.next, %ucm_findFallback.exit ]
  %.058 = phi i8 [ 0, %7 ], [ %.1, %ucm_findFallback.exit ]
  %.04157 = phi i32 [ 0, %7 ], [ %.142, %ucm_findFallback.exit ]
  %.04356 = phi i32 [ 0, %7 ], [ %.144, %ucm_findFallback.exit ]
  %13 = getelementptr inbounds [128 x [256 x i32]], ptr %0, i64 0, i64 %8, i64 %indvars.iv
  %14 = load i32, ptr %13, align 4, !tbaa !11
  %15 = icmp sgt i32 %14, -1
  br i1 %15, label %16, label %29

16:                                               ; preds = %12
  %17 = lshr i32 %14, 24
  %18 = and i32 %14, 16777215
  %19 = add nsw i32 %18, %5
  %20 = add nuw nsw i64 %indvars.iv, %11
  %21 = trunc nuw i64 %20 to i32
  %22 = tail call fastcc noundef i32 @_ZL14findUnassignedP9UCMStatesPtP16_MBCSToUFallbackiiij(ptr noundef nonnull %0, ptr noundef %1, ptr noundef %2, i32 noundef %3, i32 noundef %17, i32 noundef %19, i32 noundef %21)
  %23 = icmp slt i32 %22, 0
  br i1 %23, label %ucm_findFallback.exit, label %24

24:                                               ; preds = %16
  %.not51 = icmp eq i32 %22, 0
  br i1 %.not51, label %ucm_findFallback.exit, label %25

25:                                               ; preds = %24
  %26 = zext nneg i32 %22 to i64
  %27 = tail call i32 (ptr, ...) @printf(ptr noundef nonnull dereferenceable(1) @.str.60, i64 noundef %20, i64 noundef %8, i64 noundef %26)
  %28 = add nuw nsw i32 %22, %.04157
  br label %ucm_findFallback.exit

29:                                               ; preds = %12
  %.not50 = icmp eq i8 %.058, 0
  br i1 %.not50, label %30, label %ucm_findFallback.exit

30:                                               ; preds = %29
  %31 = lshr i32 %14, 20
  %32 = and i32 %31, 15
  switch i32 %32, label %ucm_findFallback.exit [
    i32 4, label %33
    i32 5, label %45
  ]

33:                                               ; preds = %30
  %34 = and i32 %14, 65535
  %35 = add nsw i32 %34, %5
  %36 = sext i32 %35 to i64
  %37 = getelementptr inbounds i16, ptr %1, i64 %36
  %38 = load i16, ptr %37, align 2, !tbaa !44
  %39 = icmp eq i16 %38, -2
  br i1 %39, label %40, label %ucm_findFallback.exit

40:                                               ; preds = %33
  br i1 %9, label %.lr.ph.i, label %.loopexit

.lr.ph.i:                                         ; preds = %40, %43
  %indvars.iv.i = phi i64 [ %indvars.iv.next.i, %43 ], [ 0, %40 ]
  %41 = getelementptr inbounds nuw %struct._MBCSToUFallback, ptr %2, i64 %indvars.iv.i
  %42 = load i32, ptr %41, align 4, !tbaa !39
  %.not62 = icmp eq i32 %35, %42
  br i1 %.not62, label %ucm_findFallback.exit, label %43

43:                                               ; preds = %.lr.ph.i
  %indvars.iv.next.i = add nuw nsw i64 %indvars.iv.i, 1
  %exitcond.not.i = icmp eq i64 %indvars.iv.next.i, %wide.trip.count.i
  br i1 %exitcond.not.i, label %.loopexit, label %.lr.ph.i, !llvm.loop !41

.loopexit:                                        ; preds = %43, %40
  %44 = add nsw i32 %.04356, 2
  br label %ucm_findFallback.exit

45:                                               ; preds = %30
  %46 = and i32 %14, 65535
  %47 = add nsw i32 %46, %5
  %48 = sext i32 %47 to i64
  %49 = getelementptr inbounds i16, ptr %1, i64 %48
  %50 = load i16, ptr %49, align 2, !tbaa !44
  %51 = icmp ne i16 %50, -2
  %52 = add nsw i32 %.04356, 4
  %spec.select53 = select i1 %51, i32 %.04356, i32 %52
  %spec.select54 = zext i1 %51 to i8
  br label %ucm_findFallback.exit

ucm_findFallback.exit:                            ; preds = %.lr.ph.i, %.loopexit, %45, %33, %16, %24, %25, %30, %29
  %.144 = phi i32 [ %.04356, %25 ], [ %.04356, %24 ], [ %.04356, %29 ], [ %.04356, %30 ], [ %.04356, %16 ], [ %.04356, %33 ], [ %spec.select53, %45 ], [ %44, %.loopexit ], [ %.04356, %.lr.ph.i ]
  %.142 = phi i32 [ %28, %25 ], [ %.04157, %24 ], [ %.04157, %29 ], [ %.04157, %30 ], [ %.04157, %16 ], [ %.04157, %33 ], [ %.04157, %45 ], [ %.04157, %.loopexit ], [ %.04157, %.lr.ph.i ]
  %.1 = phi i8 [ %.058, %25 ], [ %.058, %24 ], [ 1, %29 ], [ 0, %30 ], [ 1, %16 ], [ 1, %33 ], [ %spec.select54, %45 ], [ 0, %.loopexit ], [ 1, %.lr.ph.i ]
  %indvars.iv.next = add nuw nsw i64 %indvars.iv, 1
  %exitcond.not = icmp eq i64 %indvars.iv.next, 256
  br i1 %exitcond.not, label %53, label %12, !llvm.loop !64

53:                                               ; preds = %ucm_findFallback.exit
  %.not = icmp eq i8 %.1, 0
  %54 = add nsw i32 %.142, %.144
  %.045 = select i1 %.not, i32 %54, i32 -1
  ret i32 %.045
}